; Function Attrs: mustprogress nofree norecurse nosync nounwind willreturn memory(argmem: read) uwtable
define noundef zeroext i1 @_ZNK7glslang15TIntermOperator13modifiesStateEv(ptr nocapture noundef nonnull readonly align 8 dereferenceable(192) %0) local_unnamed_addr #4 align 2 {
  %2 = getelementptr inbounds i8, ptr %0, i64 184
  %3 = load i32, ptr %2, align 8
  switch i32 %3, label %4 [
    i32 12, label %5
    i32 13, label %5
    i32 14, label %5
    i32 15, label %5
    i32 585, label %5
    i32 586, label %5
    i32 587, label %5
    i32 588, label %5
    i32 589, label %5
    i32 590, label %5
    i32 591, label %5
    i32 592, label %5
    i32 593, label %5
    i32 594, label %5
    i32 595, label %5
    i32 596, label %5
    i32 597, label %5
    i32 598, label %5
    i32 599, label %5
  ]

4:                                                ; preds = %1
  br label %5

5:                                                ; preds = %1, %1, %1, %1, %1, %1, %1, %1, %1, %1, %1, %1, %1, %1, %1, %1, %1, %1, %1, %4
  %.0 = phi i1 [ false, %4 ], [ true, %1 ], [ true, %1 ], [ true, %1 ], [ true, %1 ], [ true, %1 ], [ true, %1 ], [ true, %1 ], [ true, %1 ], [ true, %1 ], [ true, %1 ], [ true, %1 ], [ true, %1 ], [ true, %1 ], [ true, %1 ], [ true, %1 ], [ true, %1 ], [ true, %1 ], [ true, %1 ], [ true, %1 ]
  ret i1 %.0
}